; Function Attrs: mustprogress nounwind uwtable
define void @_ZN32pxrInternal_v0_24__pxrReserved__16HfPluginRegistryD2Ev(ptr noundef nonnull align 8 dereferenceable(89) %0) unnamed_addr #2 align 2 personality ptr @__gxx_personality_v0 {
  store ptr getelementptr inbounds inrange(-16, 24) (i8, ptr @_ZTVN32pxrInternal_v0_24__pxrReserved__16HfPluginRegistryE, i64 16), ptr %0, align 8
  %2 = getelementptr inbounds nuw i8, ptr %0, i64 40
  %3 = getelementptr inbounds i8, ptr %0, i64 56
  %4 = load ptr, ptr %3, align 8
  invoke void @_ZNSt8_Rb_treeIN32pxrInternal_v0_24__pxrReserved__7TfTokenESt4pairIKS1_mESt10_Select1stIS4_ESt4lessIS1_ESaIS4_EE8_M_eraseEPSt13_Rb_tree_nodeIS4_E(ptr noundef nonnull align 8 dereferenceable(48) %2, ptr noundef %4)
          to label %_ZNSt3mapIN32pxrInternal_v0_24__pxrReserved__7TfTokenEmSt4lessIS1_ESaISt4pairIKS1_mEEED2Ev.exit unwind label %5

5:                                                ; preds = %1
  %6 = landingpad { ptr, i32 }
          catch ptr null
  %7 = extractvalue { ptr, i32 } %6, 0
  tail call void @__clang_call_terminate(ptr %7) #18
  unreachable

_ZNSt3mapIN32pxrInternal_v0_24__pxrReserved__7TfTokenEmSt4lessIS1_ESaISt4pairIKS1_mEEED2Ev.exit: ; preds = %1
  %8 = getelementptr inbounds nuw i8, ptr %0, i64 16
  %9 = load ptr, ptr %8, align 8
  %10 = getelementptr inbounds i8, ptr %0, i64 24
  %11 = load ptr, ptr %10, align 8
  %.not4.i.i.i.i = icmp eq ptr %9, %11
  br i1 %.not4.i.i.i.i, label %_ZSt8_DestroyIPN32pxrInternal_v0_24__pxrReserved__14Hf_PluginEntryES1_EvT_S3_RSaIT0_E.exit.i, label %.lr.ph.i.i.i.i

.lr.ph.i.i.i.i:                                   ; preds = %_ZNSt3mapIN32pxrInternal_v0_24__pxrReserved__7TfTokenEmSt4lessIS1_ESaISt4pairIKS1_mEEED2Ev.exit, %.lr.ph.i.i.i.i
  %.05.i.i.i.i = phi ptr [ %12, %.lr.ph.i.i.i.i ], [ %9, %_ZNSt3mapIN32pxrInternal_v0_24__pxrReserved__7TfTokenEmSt4lessIS1_ESaISt4pairIKS1_mEEED2Ev.exit ]
  tail call void @_ZN32pxrInternal_v0_24__pxrReserved__14Hf_PluginEntryD1Ev(ptr noundef nonnull align 8 dereferenceable(64) %.05.i.i.i.i) #19
  %12 = getelementptr inbounds i8, ptr %.05.i.i.i.i, i64 64
  %.not.i.i.i.i = icmp eq ptr %12, %11
  br i1 %.not.i.i.i.i, label %_ZSt8_DestroyIPN32pxrInternal_v0_24__pxrReserved__14Hf_PluginEntryES1_EvT_S3_RSaIT0_E.exitthread-pre-split.i, label %.lr.ph.i.i.i.i, !llvm.loop !4

_ZSt8_DestroyIPN32pxrInternal_v0_24__pxrReserved__14Hf_PluginEntryES1_EvT_S3_RSaIT0_E.exitthread-pre-split.i: ; preds = %.lr.ph.i.i.i.i
  %.pr.i = load ptr, ptr %8, align 8
  br label %_ZSt8_DestroyIPN32pxrInternal_v0_24__pxrReserved__14Hf_PluginEntryES1_EvT_S3_RSaIT0_E.exit.i

_ZSt8_DestroyIPN32pxrInternal_v0_24__pxrReserved__14Hf_PluginEntryES1_EvT_S3_RSaIT0_E.exit.i: ; preds = %_ZSt8_DestroyIPN32pxrInternal_v0_24__pxrReserved__14Hf_PluginEntryES1_EvT_S3_RSaIT0_E.exitthread-pre-split.i, %_ZNSt3mapIN32pxrInternal_v0_24__pxrReserved__7TfTokenEmSt4lessIS1_ESaISt4pairIKS1_mEEED2Ev.exit
  %13 = phi ptr [ %.pr.i, %_ZSt8_DestroyIPN32pxrInternal_v0_24__pxrReserved__14Hf_PluginEntryES1_EvT_S3_RSaIT0_E.exitthread-pre-split.i ], [ %9, %_ZNSt3mapIN32pxrInternal_v0_24__pxrReserved__7TfTokenEmSt4lessIS1_ESaISt4pairIKS1_mEEED2Ev.exit ]
  %.not.i.i.i = icmp eq ptr %13, null
  br i1 %.not.i.i.i, label %_ZNSt6vectorIN32pxrInternal_v0_24__pxrReserved__14Hf_PluginEntryESaIS1_EED2Ev.exit, label %14

14:                                               ; preds = %_ZSt8_DestroyIPN32pxrInternal_v0_24__pxrReserved__14Hf_PluginEntryES1_EvT_S3_RSaIT0_E.exit.i
  %15 = getelementptr inbounds i8, ptr %0, i64 32
  %16 = load ptr, ptr %15, align 8
  %17 = ptrtoint ptr %16 to i64
  %18 = ptrtoint ptr %13 to i64
  %19 = sub i64 %17, %18
  tail call void @_ZdlPvm(ptr noundef nonnull %13, i64 noundef %19) #20
  br label %_ZNSt6vectorIN32pxrInternal_v0_24__pxrReserved__14Hf_PluginEntryESaIS1_EED2Ev.exit

_ZNSt6vectorIN32pxrInternal_v0_24__pxrReserved__14Hf_PluginEntryESaIS1_EED2Ev.exit: ; preds = %_ZSt8_DestroyIPN32pxrInternal_v0_24__pxrReserved__14Hf_PluginEntryES1_EvT_S3_RSaIT0_E.exit.i, %14
  ret void
}